target datalayout = "e-m:e-p270:32:32-p271:32:32-p272:64:64-i64:64-i128:128-f80:128-n8:16:32:64-S128"
target triple = "x86_64-pc-linux-gnu"

%struct.Abc_Ntk_t_ = type { i32, i32, ptr, ptr, ptr, ptr, ptr, ptr, ptr, ptr, ptr, ptr, ptr, [11 x i32], i32, i32, i32, i32, ptr, i32, ptr, ptr, i32, i32, i32, double, i32, %struct.Vec_Int_t_, ptr, ptr, ptr, ptr, ptr, float, i32, ptr, ptr, ptr, ptr, ptr, ptr, ptr, ptr, ptr, ptr, ptr, ptr, ptr, ptr, ptr, ptr, ptr, ptr, ptr, ptr, ptr, ptr }
%struct.Vec_Int_t_ = type { i32, i32, ptr }
%struct.Abc_Obj_t_ = type { ptr, ptr, i32, i32, %struct.Vec_Int_t_, %struct.Vec_Int_t_, %union.anon, %union.anon.0 }
%union.anon = type { ptr }
%union.anon.0 = type { ptr }
%struct.Vec_Ptr_t_ = type { i32, i32, ptr }

; Function Attrs: inlinehint nounwind uwtable
define internal void @Vec_IntGrow(ptr noundef %0, i32 noundef %1) #2 {
  %3 = alloca ptr, align 8
  %4 = alloca i32, align 4
  store ptr %0, ptr %3, align 8, !tbaa !72
  store i32 %1, ptr %4, align 4, !tbaa !10
  %5 = load ptr, ptr %3, align 8, !tbaa !72
  %6 = getelementptr inbounds nuw %struct.Vec_Int_t_, ptr %5, i32 0, i32 0
  %7 = load i32, ptr %6, align 8, !tbaa !75
  %8 = load i32, ptr %4, align 4, !tbaa !10
  %9 = icmp sge i32 %7, %8
  br i1 %9, label %10, label %11

10:                                               ; preds = %2
  br label %36

11:                                               ; preds = %2
  %12 = load ptr, ptr %3, align 8, !tbaa !72
  %13 = getelementptr inbounds nuw %struct.Vec_Int_t_, ptr %12, i32 0, i32 2
  %14 = load ptr, ptr %13, align 8, !tbaa !76
  %15 = icmp ne ptr %14, null
  br i1 %15, label %16, label %24

16:                                               ; preds = %11
  %17 = load ptr, ptr %3, align 8, !tbaa !72
  %18 = getelementptr inbounds nuw %struct.Vec_Int_t_, ptr %17, i32 0, i32 2
  %19 = load ptr, ptr %18, align 8, !tbaa !76
  %20 = load i32, ptr %4, align 4, !tbaa !10
  %21 = sext i32 %20 to i64
  %22 = mul i64 4, %21
  %23 = call ptr @realloc(ptr noundef %19, i64 noundef %22) #9
  br label %29

24:                                               ; preds = %11
  %25 = load i32, ptr %4, align 4, !tbaa !10
  %26 = sext i32 %25 to i64
  %27 = mul i64 4, %26
  %28 = call noalias ptr @malloc(i64 noundef %27) #8
  br label %29

29:                                               ; preds = %24, %16
  %30 = phi ptr [ %23, %16 ], [ %28, %24 ]
  %31 = load ptr, ptr %3, align 8, !tbaa !72
  %32 = getelementptr inbounds nuw %struct.Vec_Int_t_, ptr %31, i32 0, i32 2
  store ptr %30, ptr %32, align 8, !tbaa !76
  %33 = load i32, ptr %4, align 4, !tbaa !10
  %34 = load ptr, ptr %3, align 8, !tbaa !72
  %35 = getelementptr inbounds nuw %struct.Vec_Int_t_, ptr %34, i32 0, i32 0
  store i32 %33, ptr %35, align 8, !tbaa !75
  br label %36

36:                                               ; preds = %29, %10
  ret void
}

; Function Attrs: inlinehint nounwind uwtable
define internal void @Vec_IntWriteEntry(ptr noundef %0, i32 noundef %1, i32 noundef %2) #2 {
  %4 = alloca ptr, align 8
  %5 = alloca i32, align 4
  %6 = alloca i32, align 4
  store ptr %0, ptr %4, align 8, !tbaa !72
  store i32 %1, ptr %5, align 4, !tbaa !10
  store i32 %2, ptr %6, align 4, !tbaa !10
  %7 = load i32, ptr %6, align 4, !tbaa !10
  %8 = load ptr, ptr %4, align 8, !tbaa !72
  %9 = getelementptr inbounds nuw %struct.Vec_Int_t_, ptr %8, i32 0, i32 2
  %10 = load ptr, ptr %9, align 8, !tbaa !76
  %11 = load i32, ptr %5, align 4, !tbaa !10
  %12 = sext i32 %11 to i64
  %13 = getelementptr inbounds i32, ptr %10, i64 %12
  store i32 %7, ptr %13, align 4, !tbaa !10
  ret void
}

; Function Attrs: inlinehint nounwind uwtable
define internal void @Vec_IntFillExtra(ptr noundef %0, i32 noundef %1, i32 noundef %2) #2 {
  %4 = alloca ptr, align 8
  %5 = alloca i32, align 4
  %6 = alloca i32, align 4
  %7 = alloca i32, align 4
  %8 = alloca i32, align 4
  store ptr %0, ptr %4, align 8, !tbaa !72
  store i32 %1, ptr %5, align 4, !tbaa !10
  store i32 %2, ptr %6, align 4, !tbaa !10
  call void @llvm.lifetime.start.p0(i64 4, ptr %7) #7
  %9 = load i32, ptr %5, align 4, !tbaa !10
  %10 = load ptr, ptr %4, align 8, !tbaa !72
  %11 = getelementptr inbounds nuw %struct.Vec_Int_t_, ptr %10, i32 0, i32 1
  %12 = load i32, ptr %11, align 4, !tbaa !74
  %13 = icmp sle i32 %9, %12
  br i1 %13, label %14, label %15

14:                                               ; preds = %3
  store i32 1, ptr %8, align 4
  br label %61

15:                                               ; preds = %3
  %16 = load i32, ptr %5, align 4, !tbaa !10
  %17 = load ptr, ptr %4, align 8, !tbaa !72
  %18 = getelementptr inbounds nuw %struct.Vec_Int_t_, ptr %17, i32 0, i32 0
  %19 = load i32, ptr %18, align 8, !tbaa !75
  %20 = mul nsw i32 2, %19
  %21 = icmp sgt i32 %16, %20
  br i1 %21, label %22, label %25

22:                                               ; preds = %15
  %23 = load ptr, ptr %4, align 8, !tbaa !72
  %24 = load i32, ptr %5, align 4, !tbaa !10
  call void @Vec_IntGrow(ptr noundef %23, i32 noundef %24)
  br label %38

25:                                               ; preds = %15
  %26 = load i32, ptr %5, align 4, !tbaa !10
  %27 = load ptr, ptr %4, align 8, !tbaa !72
  %28 = getelementptr inbounds nuw %struct.Vec_Int_t_, ptr %27, i32 0, i32 0
  %29 = load i32, ptr %28, align 8, !tbaa !75
  %30 = icmp sgt i32 %26, %29
  br i1 %30, label %31, label %37

31:                                               ; preds = %25
  %32 = load ptr, ptr %4, align 8, !tbaa !72
  %33 = load ptr, ptr %4, align 8, !tbaa !72
  %34 = getelementptr inbounds nuw %struct.Vec_Int_t_, ptr %33, i32 0, i32 0
  %35 = load i32, ptr %34, align 8, !tbaa !75
  %36 = mul nsw i32 2, %35
  call void @Vec_IntGrow(ptr noundef %32, i32 noundef %36)
  br label %37

37:                                               ; preds = %31, %25
  br label %38

38:                                               ; preds = %37, %22
  %39 = load ptr, ptr %4, align 8, !tbaa !72
  %40 = getelementptr inbounds nuw %struct.Vec_Int_t_, ptr %39, i32 0, i32 1
  %41 = load i32, ptr %40, align 4, !tbaa !74
  store i32 %41, ptr %7, align 4, !tbaa !10
  br label %42

42:                                               ; preds = %54, %38
  %43 = load i32, ptr %7, align 4, !tbaa !10
  %44 = load i32, ptr %5, align 4, !tbaa !10
  %45 = icmp slt i32 %43, %44
  br i1 %45, label %46, label %57

46:                                               ; preds = %42
  %47 = load i32, ptr %6, align 4, !tbaa !10
  %48 = load ptr, ptr %4, align 8, !tbaa !72
  %49 = getelementptr inbounds nuw %struct.Vec_Int_t_, ptr %48, i32 0, i32 2
  %50 = load ptr, ptr %49, align 8, !tbaa !76
  %51 = load i32, ptr %7, align 4, !tbaa !10
  %52 = sext i32 %51 to i64
  %53 = getelementptr inbounds i32, ptr %50, i64 %52
  store i32 %47, ptr %53, align 4, !tbaa !10
  br label %54

54:                                               ; preds = %46
  %55 = load i32, ptr %7, align 4, !tbaa !10
  %56 = add nsw i32 %55, 1
  store i32 %56, ptr %7, align 4, !tbaa !10
  br label %42, !llvm.loop !77

57:                                               ; preds = %42
  %58 = load i32, ptr %5, align 4, !tbaa !10
  %59 = load ptr, ptr %4, align 8, !tbaa !72
  %60 = getelementptr inbounds nuw %struct.Vec_Int_t_, ptr %59, i32 0, i32 1
  store i32 %58, ptr %60, align 4, !tbaa !74
  store i32 0, ptr %8, align 4
  br label %61

61:                                               ; preds = %57, %14
  call void @llvm.lifetime.end.p0(i64 4, ptr %7) #7
  %62 = load i32, ptr %8, align 4
  switch i32 %62, label %64 [
    i32 0, label %63
    i32 1, label %63
  ]

63:                                               ; preds = %61, %61
  ret void

64:                                               ; preds = %61
  unreachable
}

; Function Attrs: inlinehint nounwind uwtable
define internal void @Vec_IntSetEntry(ptr noundef %0, i32 noundef %1, i32 noundef %2) #2 {
  %4 = alloca ptr, align 8
  %5 = alloca i32, align 4
  %6 = alloca i32, align 4
  store ptr %0, ptr %4, align 8, !tbaa !72
  store i32 %1, ptr %5, align 4, !tbaa !10
  store i32 %2, ptr %6, align 4, !tbaa !10
  %7 = load ptr, ptr %4, align 8, !tbaa !72
  %8 = load i32, ptr %5, align 4, !tbaa !10
  %9 = add nsw i32 %8, 1
  call void @Vec_IntFillExtra(ptr noundef %7, i32 noundef %9, i32 noundef 0)
  %10 = load ptr, ptr %4, align 8, !tbaa !72
  %11 = load i32, ptr %5, align 4, !tbaa !10
  %12 = load i32, ptr %6, align 4, !tbaa !10
  call void @Vec_IntWriteEntry(ptr noundef %10, i32 noundef %11, i32 noundef %12)
  ret void
}

; Function Attrs: inlinehint nounwind uwtable
define internal i32 @Abc_ObjId(ptr noundef %0) #2 {
  %2 = alloca ptr, align 8
  store ptr %0, ptr %2, align 8, !tbaa !3
  %3 = load ptr, ptr %2, align 8, !tbaa !3
  %4 = getelementptr inbounds nuw %struct.Abc_Obj_t_, ptr %3, i32 0, i32 2
  %5 = load i32, ptr %4, align 8, !tbaa !73
  ret i32 %5
}

; Function Attrs: inlinehint nounwind uwtable
define internal void @Abc_NodeSetTravId(ptr noundef %0, i32 noundef %1) #2 {
  %3 = alloca ptr, align 8
  %4 = alloca i32, align 4
  store ptr %0, ptr %3, align 8, !tbaa !3
  store i32 %1, ptr %4, align 4, !tbaa !10
  %5 = load ptr, ptr %3, align 8, !tbaa !3
  %6 = call ptr @Abc_ObjNtk(ptr noundef %5)
  %7 = getelementptr inbounds nuw %struct.Abc_Ntk_t_, ptr %6, i32 0, i32 27
  %8 = load ptr, ptr %3, align 8, !tbaa !3
  %9 = call i32 @Abc_ObjId(ptr noundef %8)
  %10 = load i32, ptr %4, align 4, !tbaa !10
  call void @Vec_IntSetEntry(ptr noundef %7, i32 noundef %9, i32 noundef %10)
  ret void
}

; Function Attrs: inlinehint nounwind uwtable
define internal ptr @Abc_ObjNtk(ptr noundef %0) #2 {
  %2 = alloca ptr, align 8
  store ptr %0, ptr %2, align 8, !tbaa !3
  %3 = load ptr, ptr %2, align 8, !tbaa !3
  %4 = getelementptr inbounds nuw %struct.Abc_Obj_t_, ptr %3, i32 0, i32 0
  %5 = load ptr, ptr %4, align 8, !tbaa !37
  ret ptr %5
}

; Function Attrs: inlinehint nounwind uwtable
define internal ptr @Abc_ObjFanin(ptr noundef %0, i32 noundef %1) #2 {
  %3 = alloca ptr, align 8
  %4 = alloca i32, align 4
  store ptr %0, ptr %3, align 8, !tbaa !3
  store i32 %1, ptr %4, align 4, !tbaa !10
  %5 = load ptr, ptr %3, align 8, !tbaa !3
  %6 = getelementptr inbounds nuw %struct.Abc_Obj_t_, ptr %5, i32 0, i32 0
  %7 = load ptr, ptr %6, align 8, !tbaa !37
  %8 = getelementptr inbounds nuw %struct.Abc_Ntk_t_, ptr %7, i32 0, i32 5
  %9 = load ptr, ptr %8, align 8, !tbaa !38
  %10 = getelementptr inbounds nuw %struct.Vec_Ptr_t_, ptr %9, i32 0, i32 2
  %11 = load ptr, ptr %10, align 8, !tbaa !34
  %12 = load ptr, ptr %3, align 8, !tbaa !3
  %13 = getelementptr inbounds nuw %struct.Abc_Obj_t_, ptr %12, i32 0, i32 4
  %14 = getelementptr inbounds nuw %struct.Vec_Int_t_, ptr %13, i32 0, i32 2
  %15 = load ptr, ptr %14, align 8, !tbaa !39
  %16 = load i32, ptr %4, align 4, !tbaa !10
  %17 = sext i32 %16 to i64
  %18 = getelementptr inbounds i32, ptr %15, i64 %17
  %19 = load i32, ptr %18, align 4, !tbaa !10
  %20 = sext i32 %19 to i64
  %21 = getelementptr inbounds ptr, ptr %11, i64 %20
  %22 = load ptr, ptr %21, align 8, !tbaa !30
  ret ptr %22
}

; Function Attrs: inlinehint nounwind uwtable
define internal i32 @Abc_ObjFaninNum(ptr noundef %0) #2 {
  %2 = alloca ptr, align 8
  store ptr %0, ptr %2, align 8, !tbaa !3
  %3 = load ptr, ptr %2, align 8, !tbaa !3
  %4 = getelementptr inbounds nuw %struct.Abc_Obj_t_, ptr %3, i32 0, i32 4
  %5 = getelementptr inbounds nuw %struct.Vec_Int_t_, ptr %4, i32 0, i32 1
  %6 = load i32, ptr %5, align 4, !tbaa !35
  ret i32 %6
}

; Function Attrs: inlinehint nounwind uwtable
define internal void @Abc_NodeSetTravIdCurrent(ptr noundef %0) #2 {
  %2 = alloca ptr, align 8
  store ptr %0, ptr %2, align 8, !tbaa !3
  %3 = load ptr, ptr %2, align 8, !tbaa !3
  %4 = load ptr, ptr %2, align 8, !tbaa !3
  %5 = call ptr @Abc_ObjNtk(ptr noundef %4)
  %6 = getelementptr inbounds nuw %struct.Abc_Ntk_t_, ptr %5, i32 0, i32 26
  %7 = load i32, ptr %6, align 8, !tbaa !14
  call void @Abc_NodeSetTravId(ptr noundef %3, i32 noundef %7)
  ret void
}

; Function Attrs: inlinehint nounwind uwtable
define internal i32 @Abc_ObjIsCi(ptr noundef %0) #2 {
  %2 = alloca ptr, align 8
  store ptr %0, ptr %2, align 8, !tbaa !3
  %3 = load ptr, ptr %2, align 8, !tbaa !3
  %4 = getelementptr inbounds nuw %struct.Abc_Obj_t_, ptr %3, i32 0, i32 3
  %5 = load i32, ptr %4, align 4
  %6 = and i32 %5, 15
  %7 = icmp eq i32 %6, 2
  br i1 %7, label %14, label %8

8:                                                ; preds = %1
  %9 = load ptr, ptr %2, align 8, !tbaa !3
  %10 = getelementptr inbounds nuw %struct.Abc_Obj_t_, ptr %9, i32 0, i32 3
  %11 = load i32, ptr %10, align 4
  %12 = and i32 %11, 15
  %13 = icmp eq i32 %12, 5
  br label %14

14:                                               ; preds = %8, %1
  %15 = phi i1 [ true, %1 ], [ %13, %8 ]
  %16 = zext i1 %15 to i32
  ret i32 %16
}

; Function Attrs: nounwind uwtable
define i32 @Abc_MfsNodeDeref_rec(ptr noundef %0) #0 {
  %2 = alloca i32, align 4
  %3 = alloca ptr, align 8
  %4 = alloca ptr, align 8
  %5 = alloca i32, align 4
  %6 = alloca i32, align 4
  %7 = alloca i32, align 4
  store ptr %0, ptr %3, align 8, !tbaa !3
  call void @llvm.lifetime.start.p0(i64 8, ptr %4) #7
  call void @llvm.lifetime.start.p0(i64 4, ptr %5) #7
  call void @llvm.lifetime.start.p0(i64 4, ptr %6) #7
  store i32 1, ptr %6, align 4, !tbaa !10
  %8 = load ptr, ptr %3, align 8, !tbaa !3
  %9 = call i32 @Abc_ObjIsCi(ptr noundef %8)
  %10 = icmp ne i32 %9, 0
  br i1 %10, label %11, label %12

11:                                               ; preds = %1
  store i32 0, ptr %2, align 4
  store i32 1, ptr %7, align 4
  br label %43

12:                                               ; preds = %1
  %13 = load ptr, ptr %3, align 8, !tbaa !3
  call void @Abc_NodeSetTravIdCurrent(ptr noundef %13)
  store i32 0, ptr %5, align 4, !tbaa !10
  br label %14

14:                                               ; preds = %38, %12
  %15 = load i32, ptr %5, align 4, !tbaa !10
  %16 = load ptr, ptr %3, align 8, !tbaa !3
  %17 = call i32 @Abc_ObjFaninNum(ptr noundef %16)
  %18 = icmp slt i32 %15, %17
  br i1 %18, label %19, label %23

19:                                               ; preds = %14
  %20 = load ptr, ptr %3, align 8, !tbaa !3
  %21 = load i32, ptr %5, align 4, !tbaa !10
  %22 = call ptr @Abc_ObjFanin(ptr noundef %20, i32 noundef %21)
  store ptr %22, ptr %4, align 8, !tbaa !3
  br label %23

23:                                               ; preds = %19, %14
  %24 = phi i1 [ false, %14 ], [ true, %19 ]
  br i1 %24, label %25, label %41

25:                                               ; preds = %23
  %26 = load ptr, ptr %4, align 8, !tbaa !3
  %27 = getelementptr inbounds nuw %struct.Abc_Obj_t_, ptr %26, i32 0, i32 5
  %28 = getelementptr inbounds nuw %struct.Vec_Int_t_, ptr %27, i32 0, i32 1
  %29 = load i32, ptr %28, align 4, !tbaa !41
  %30 = add nsw i32 %29, -1
  store i32 %30, ptr %28, align 4, !tbaa !41
  %31 = icmp eq i32 %30, 0
  br i1 %31, label %32, label %37

32:                                               ; preds = %25
  %33 = load ptr, ptr %4, align 8, !tbaa !3
  %34 = call i32 @Abc_MfsNodeDeref_rec(ptr noundef %33)
  %35 = load i32, ptr %6, align 4, !tbaa !10
  %36 = add nsw i32 %35, %34
  store i32 %36, ptr %6, align 4, !tbaa !10
  br label %37

37:                                               ; preds = %32, %25
  br label %38

38:                                               ; preds = %37
  %39 = load i32, ptr %5, align 4, !tbaa !10
  %40 = add nsw i32 %39, 1
  store i32 %40, ptr %5, align 4, !tbaa !10
  br label %14, !llvm.loop !43

41:                                               ; preds = %23
  %42 = load i32, ptr %6, align 4, !tbaa !10
  store i32 %42, ptr %2, align 4
  store i32 1, ptr %7, align 4
  br label %43

43:                                               ; preds = %41, %11
  call void @llvm.lifetime.end.p0(i64 4, ptr %6) #7
  call void @llvm.lifetime.end.p0(i64 4, ptr %5) #7
  call void @llvm.lifetime.end.p0(i64 8, ptr %4) #7
  %44 = load i32, ptr %2, align 4
  ret i32 %44
}